target datalayout = "e-m:e-p270:32:32-p271:32:32-p272:64:64-i64:64-i128:128-f80:128-n8:16:32:64-S128"
target triple = "x86_64-pc-linux-gnu"

%"class.cv::Point_" = type { float, float }
%"struct.std::_Vector_base.1" = type { %"struct.std::_Vector_base<cv::Point_<float>, std::allocator<cv::Point_<float>>>::_Vector_impl" }
%"struct.std::_Vector_base<cv::Point_<float>, std::allocator<cv::Point_<float>>>::_Vector_impl" = type { %"struct.std::_Vector_base<cv::Point_<float>, std::allocator<cv::Point_<float>>>::_Vector_impl_data" }
%"struct.std::_Vector_base<cv::Point_<float>, std::allocator<cv::Point_<float>>>::_Vector_impl_data" = type { ptr, ptr, ptr }
%"class.cv::Size_" = type { float, float }
%"class.cv::RotatedRect" = type { %"class.cv::Point_", %"class.cv::Size_", float }

; Function Attrs: mustprogress nounwind uwtable
define linkonce_odr hidden noundef ptr @_ZNKSt6vectorIN2cv6Point_IfEESaIS2_EE11_M_data_ptrIS2_EEPT_S7_(ptr noundef nonnull align 8 dereferenceable(24) %0, ptr noundef %1) #0 comdat align 2 {
  %3 = alloca ptr, align 8
  %4 = alloca ptr, align 8
  store ptr %0, ptr %3, align 8, !tbaa !24
  store ptr %1, ptr %4, align 8, !tbaa !58
  %5 = load ptr, ptr %4, align 8, !tbaa !58
  ret ptr %5
}

; Function Attrs: mustprogress nounwind uwtable
define void @_ZNK2cv11RotatedRect6pointsEPNS_6Point_IfEE(ptr noundef nonnull align 4 dereferenceable(20) %0, ptr noundef %1) #0 align 2 {
  %3 = alloca ptr, align 8
  %4 = alloca ptr, align 8
  %5 = alloca double, align 8
  %6 = alloca float, align 4
  %7 = alloca float, align 4
  store ptr %0, ptr %3, align 8, !tbaa !63
  store ptr %1, ptr %4, align 8, !tbaa !58
  %8 = load ptr, ptr %3, align 8
  call void @llvm.lifetime.start.p0(i64 8, ptr %5) #18
  %9 = getelementptr inbounds nuw %"class.cv::RotatedRect", ptr %8, i32 0, i32 2
  %10 = load float, ptr %9, align 4, !tbaa !67
  %11 = fpext float %10 to double
  %12 = fmul double %11, 0x400921FB54442D18
  %13 = fdiv double %12, 1.800000e+02
  store double %13, ptr %5, align 8, !tbaa !65
  call void @llvm.lifetime.start.p0(i64 4, ptr %6) #18
  %14 = load double, ptr %5, align 8, !tbaa !65
  %15 = call double @cos(double noundef %14) #18, !tbaa !32
  %16 = fptrunc double %15 to float
  %17 = fmul float %16, 5.000000e-01
  store float %17, ptr %6, align 4, !tbaa !29
  call void @llvm.lifetime.start.p0(i64 4, ptr %7) #18
  %18 = load double, ptr %5, align 8, !tbaa !65
  %19 = call double @sin(double noundef %18) #18, !tbaa !32
  %20 = fptrunc double %19 to float
  %21 = fmul float %20, 5.000000e-01
  store float %21, ptr %7, align 4, !tbaa !29
  %22 = getelementptr inbounds nuw %"class.cv::RotatedRect", ptr %8, i32 0, i32 0
  %23 = getelementptr inbounds nuw %"class.cv::Point_", ptr %22, i32 0, i32 0
  %24 = load float, ptr %23, align 4, !tbaa !81
  %25 = load float, ptr %7, align 4, !tbaa !29
  %26 = getelementptr inbounds nuw %"class.cv::RotatedRect", ptr %8, i32 0, i32 1
  %27 = getelementptr inbounds nuw %"class.cv::Size_", ptr %26, i32 0, i32 1
  %28 = load float, ptr %27, align 4, !tbaa !82
  %29 = fneg float %25
  %30 = call float @llvm.fmuladd.f32(float %29, float %28, float %24)
  %31 = load float, ptr %6, align 4, !tbaa !29
  %32 = getelementptr inbounds nuw %"class.cv::RotatedRect", ptr %8, i32 0, i32 1
  %33 = getelementptr inbounds nuw %"class.cv::Size_", ptr %32, i32 0, i32 0
  %34 = load float, ptr %33, align 4, !tbaa !83
  %35 = fneg float %31
  %36 = call float @llvm.fmuladd.f32(float %35, float %34, float %30)
  %37 = load ptr, ptr %4, align 8, !tbaa !58
  %38 = getelementptr inbounds %"class.cv::Point_", ptr %37, i64 0
  %39 = getelementptr inbounds nuw %"class.cv::Point_", ptr %38, i32 0, i32 0
  store float %36, ptr %39, align 4, !tbaa !59
  %40 = getelementptr inbounds nuw %"class.cv::RotatedRect", ptr %8, i32 0, i32 0
  %41 = getelementptr inbounds nuw %"class.cv::Point_", ptr %40, i32 0, i32 1
  %42 = load float, ptr %41, align 4, !tbaa !84
  %43 = load float, ptr %6, align 4, !tbaa !29
  %44 = getelementptr inbounds nuw %"class.cv::RotatedRect", ptr %8, i32 0, i32 1
  %45 = getelementptr inbounds nuw %"class.cv::Size_", ptr %44, i32 0, i32 1
  %46 = load float, ptr %45, align 4, !tbaa !82
  %47 = call float @llvm.fmuladd.f32(float %43, float %46, float %42)
  %48 = load float, ptr %7, align 4, !tbaa !29
  %49 = getelementptr inbounds nuw %"class.cv::RotatedRect", ptr %8, i32 0, i32 1
  %50 = getelementptr inbounds nuw %"class.cv::Size_", ptr %49, i32 0, i32 0
  %51 = load float, ptr %50, align 4, !tbaa !83
  %52 = fneg float %48
  %53 = call float @llvm.fmuladd.f32(float %52, float %51, float %47)
  %54 = load ptr, ptr %4, align 8, !tbaa !58
  %55 = getelementptr inbounds %"class.cv::Point_", ptr %54, i64 0
  %56 = getelementptr inbounds nuw %"class.cv::Point_", ptr %55, i32 0, i32 1
  store float %53, ptr %56, align 4, !tbaa !60
  %57 = getelementptr inbounds nuw %"class.cv::RotatedRect", ptr %8, i32 0, i32 0
  %58 = getelementptr inbounds nuw %"class.cv::Point_", ptr %57, i32 0, i32 0
  %59 = load float, ptr %58, align 4, !tbaa !81
  %60 = load float, ptr %7, align 4, !tbaa !29
  %61 = getelementptr inbounds nuw %"class.cv::RotatedRect", ptr %8, i32 0, i32 1
  %62 = getelementptr inbounds nuw %"class.cv::Size_", ptr %61, i32 0, i32 1
  %63 = load float, ptr %62, align 4, !tbaa !82
  %64 = call float @llvm.fmuladd.f32(float %60, float %63, float %59)
  %65 = load float, ptr %6, align 4, !tbaa !29
  %66 = getelementptr inbounds nuw %"class.cv::RotatedRect", ptr %8, i32 0, i32 1
  %67 = getelementptr inbounds nuw %"class.cv::Size_", ptr %66, i32 0, i32 0
  %68 = load float, ptr %67, align 4, !tbaa !83
  %69 = fneg float %65
  %70 = call float @llvm.fmuladd.f32(float %69, float %68, float %64)
  %71 = load ptr, ptr %4, align 8, !tbaa !58
  %72 = getelementptr inbounds %"class.cv::Point_", ptr %71, i64 1
  %73 = getelementptr inbounds nuw %"class.cv::Point_", ptr %72, i32 0, i32 0
  store float %70, ptr %73, align 4, !tbaa !59
  %74 = getelementptr inbounds nuw %"class.cv::RotatedRect", ptr %8, i32 0, i32 0
  %75 = getelementptr inbounds nuw %"class.cv::Point_", ptr %74, i32 0, i32 1
  %76 = load float, ptr %75, align 4, !tbaa !84
  %77 = load float, ptr %6, align 4, !tbaa !29
  %78 = getelementptr inbounds nuw %"class.cv::RotatedRect", ptr %8, i32 0, i32 1
  %79 = getelementptr inbounds nuw %"class.cv::Size_", ptr %78, i32 0, i32 1
  %80 = load float, ptr %79, align 4, !tbaa !82
  %81 = fneg float %77
  %82 = call float @llvm.fmuladd.f32(float %81, float %80, float %76)
  %83 = load float, ptr %7, align 4, !tbaa !29
  %84 = getelementptr inbounds nuw %"class.cv::RotatedRect", ptr %8, i32 0, i32 1
  %85 = getelementptr inbounds nuw %"class.cv::Size_", ptr %84, i32 0, i32 0
  %86 = load float, ptr %85, align 4, !tbaa !83
  %87 = fneg float %83
  %88 = call float @llvm.fmuladd.f32(float %87, float %86, float %82)
  %89 = load ptr, ptr %4, align 8, !tbaa !58
  %90 = getelementptr inbounds %"class.cv::Point_", ptr %89, i64 1
  %91 = getelementptr inbounds nuw %"class.cv::Point_", ptr %90, i32 0, i32 1
  store float %88, ptr %91, align 4, !tbaa !60
  %92 = getelementptr inbounds nuw %"class.cv::RotatedRect", ptr %8, i32 0, i32 0
  %93 = getelementptr inbounds nuw %"class.cv::Point_", ptr %92, i32 0, i32 0
  %94 = load float, ptr %93, align 4, !tbaa !81
  %95 = load ptr, ptr %4, align 8, !tbaa !58
  %96 = getelementptr inbounds %"class.cv::Point_", ptr %95, i64 0
  %97 = getelementptr inbounds nuw %"class.cv::Point_", ptr %96, i32 0, i32 0
  %98 = load float, ptr %97, align 4, !tbaa !59
  %99 = fneg float %98
  %100 = call float @llvm.fmuladd.f32(float 2.000000e+00, float %94, float %99)
  %101 = load ptr, ptr %4, align 8, !tbaa !58
  %102 = getelementptr inbounds %"class.cv::Point_", ptr %101, i64 2
  %103 = getelementptr inbounds nuw %"class.cv::Point_", ptr %102, i32 0, i32 0
  store float %100, ptr %103, align 4, !tbaa !59
  %104 = getelementptr inbounds nuw %"class.cv::RotatedRect", ptr %8, i32 0, i32 0
  %105 = getelementptr inbounds nuw %"class.cv::Point_", ptr %104, i32 0, i32 1
  %106 = load float, ptr %105, align 4, !tbaa !84
  %107 = load ptr, ptr %4, align 8, !tbaa !58
  %108 = getelementptr inbounds %"class.cv::Point_", ptr %107, i64 0
  %109 = getelementptr inbounds nuw %"class.cv::Point_", ptr %108, i32 0, i32 1
  %110 = load float, ptr %109, align 4, !tbaa !60
  %111 = fneg float %110
  %112 = call float @llvm.fmuladd.f32(float 2.000000e+00, float %106, float %111)
  %113 = load ptr, ptr %4, align 8, !tbaa !58
  %114 = getelementptr inbounds %"class.cv::Point_", ptr %113, i64 2
  %115 = getelementptr inbounds nuw %"class.cv::Point_", ptr %114, i32 0, i32 1
  store float %112, ptr %115, align 4, !tbaa !60
  %116 = getelementptr inbounds nuw %"class.cv::RotatedRect", ptr %8, i32 0, i32 0
  %117 = getelementptr inbounds nuw %"class.cv::Point_", ptr %116, i32 0, i32 0
  %118 = load float, ptr %117, align 4, !tbaa !81
  %119 = load ptr, ptr %4, align 8, !tbaa !58
  %120 = getelementptr inbounds %"class.cv::Point_", ptr %119, i64 1
  %121 = getelementptr inbounds nuw %"class.cv::Point_", ptr %120, i32 0, i32 0
  %122 = load float, ptr %121, align 4, !tbaa !59
  %123 = fneg float %122
  %124 = call float @llvm.fmuladd.f32(float 2.000000e+00, float %118, float %123)
  %125 = load ptr, ptr %4, align 8, !tbaa !58
  %126 = getelementptr inbounds %"class.cv::Point_", ptr %125, i64 3
  %127 = getelementptr inbounds nuw %"class.cv::Point_", ptr %126, i32 0, i32 0
  store float %124, ptr %127, align 4, !tbaa !59
  %128 = getelementptr inbounds nuw %"class.cv::RotatedRect", ptr %8, i32 0, i32 0
  %129 = getelementptr inbounds nuw %"class.cv::Point_", ptr %128, i32 0, i32 1
  %130 = load float, ptr %129, align 4, !tbaa !84
  %131 = load ptr, ptr %4, align 8, !tbaa !58
  %132 = getelementptr inbounds %"class.cv::Point_", ptr %131, i64 1
  %133 = getelementptr inbounds nuw %"class.cv::Point_", ptr %132, i32 0, i32 1
  %134 = load float, ptr %133, align 4, !tbaa !60
  %135 = fneg float %134
  %136 = call float @llvm.fmuladd.f32(float 2.000000e+00, float %130, float %135)
  %137 = load ptr, ptr %4, align 8, !tbaa !58
  %138 = getelementptr inbounds %"class.cv::Point_", ptr %137, i64 3
  %139 = getelementptr inbounds nuw %"class.cv::Point_", ptr %138, i32 0, i32 1
  store float %136, ptr %139, align 4, !tbaa !60
  call void @llvm.lifetime.end.p0(i64 4, ptr %7) #18
  call void @llvm.lifetime.end.p0(i64 4, ptr %6) #18
  call void @llvm.lifetime.end.p0(i64 8, ptr %5) #18
  ret void
}

; Function Attrs: mustprogress nounwind uwtable
define linkonce_odr hidden noundef ptr @_ZNSt6vectorIN2cv6Point_IfEESaIS2_EE4dataEv(ptr noundef nonnull align 8 dereferenceable(24) %0) #0 comdat align 2 {
  %2 = alloca ptr, align 8
  store ptr %0, ptr %2, align 8, !tbaa !24
  %3 = load ptr, ptr %2, align 8
  %4 = getelementptr inbounds nuw %"struct.std::_Vector_base.1", ptr %3, i32 0, i32 0
  %5 = getelementptr inbounds nuw %"struct.std::_Vector_base<cv::Point_<float>, std::allocator<cv::Point_<float>>>::_Vector_impl_data", ptr %4, i32 0, i32 0
  %6 = load ptr, ptr %5, align 8, !tbaa !34
  %7 = call noundef ptr @_ZNKSt6vectorIN2cv6Point_IfEESaIS2_EE11_M_data_ptrIS2_EEPT_S7_(ptr noundef nonnull align 8 dereferenceable(24) %3, ptr noundef %6) #18
  ret ptr %7
}

; Function Attrs: mustprogress uwtable
define void @_ZNK2cv11RotatedRect6pointsERSt6vectorINS_6Point_IfEESaIS3_EE(ptr noundef nonnull align 4 dereferenceable(20) %0, ptr noundef nonnull align 8 dereferenceable(24) %1) #2 align 2 {
  %3 = alloca ptr, align 8
  %4 = alloca ptr, align 8
  store ptr %0, ptr %3, align 8, !tbaa !63
  store ptr %1, ptr %4, align 8, !tbaa !24
  %5 = load ptr, ptr %3, align 8
  %6 = load ptr, ptr %4, align 8, !tbaa !24
  call void @_ZNSt6vectorIN2cv6Point_IfEESaIS2_EE6resizeEm(ptr noundef nonnull align 8 dereferenceable(24) %6, i64 noundef 4)
  %7 = load ptr, ptr %4, align 8, !tbaa !24
  %8 = call noundef ptr @_ZNSt6vectorIN2cv6Point_IfEESaIS2_EE4dataEv(ptr noundef nonnull align 8 dereferenceable(24) %7) #18
  call void @_ZNK2cv11RotatedRect6pointsEPNS_6Point_IfEE(ptr noundef nonnull align 4 dereferenceable(20) %5, ptr noundef %8)
  ret void
}