; Function Attrs: mustprogress uwtable
define void @_ZNK2cv11RotatedRect6pointsERSt6vectorINS_6Point_IfEESaIS3_EE(ptr noundef nonnull readonly align 4 captures(none) dereferenceable(20) %0, ptr noundef nonnull align 8 dereferenceable(24) %1) local_unnamed_addr #2 align 2 {
  tail call void @_ZNSt6vectorIN2cv6Point_IfEESaIS2_EE6resizeEm(ptr noundef nonnull align 8 dereferenceable(24) %1, i64 noundef 4)
  %3 = load ptr, ptr %1, align 8, !tbaa !23
  %4 = getelementptr inbounds nuw i8, ptr %0, i64 16
  %5 = load float, ptr %4, align 4, !tbaa !56
  %6 = fpext float %5 to double
  %7 = fmul double %6, 0x400921FB54442D18
  %8 = fdiv double %7, 1.800000e+02
  %9 = tail call double @cos(double noundef %8) #20, !tbaa !31
  %10 = fptrunc double %9 to float
  %11 = fmul float %10, 5.000000e-01
  %12 = tail call double @sin(double noundef %8) #20, !tbaa !31
  %13 = fptrunc double %12 to float
  %14 = fmul float %13, 5.000000e-01
  %15 = load float, ptr %0, align 4, !tbaa !59
  %16 = getelementptr inbounds nuw i8, ptr %0, i64 8
  %17 = getelementptr inbounds nuw i8, ptr %0, i64 12
  %18 = load float, ptr %17, align 4, !tbaa !60
  %19 = fneg float %14
  %20 = tail call float @llvm.fmuladd.f32(float %19, float %18, float %15)
  %21 = load float, ptr %16, align 4, !tbaa !61
  %22 = fneg float %11
  %23 = tail call float @llvm.fmuladd.f32(float %22, float %21, float %20)
  store float %23, ptr %3, align 4, !tbaa !52
  %24 = getelementptr inbounds nuw i8, ptr %0, i64 4
  %25 = load float, ptr %24, align 4, !tbaa !62
  %26 = tail call float @llvm.fmuladd.f32(float %11, float %18, float %25)
  %27 = tail call float @llvm.fmuladd.f32(float %19, float %21, float %26)
  %28 = getelementptr inbounds nuw i8, ptr %3, i64 4
  store float %27, ptr %28, align 4, !tbaa !53
  %29 = load float, ptr %0, align 4, !tbaa !59
  %30 = tail call float @llvm.fmuladd.f32(float %14, float %18, float %29)
  %31 = tail call float @llvm.fmuladd.f32(float %22, float %21, float %30)
  %32 = getelementptr inbounds nuw i8, ptr %3, i64 8
  store float %31, ptr %32, align 4, !tbaa !52
  %33 = load float, ptr %24, align 4, !tbaa !62
  %34 = tail call float @llvm.fmuladd.f32(float %22, float %18, float %33)
  %35 = tail call float @llvm.fmuladd.f32(float %19, float %21, float %34)
  %36 = getelementptr inbounds nuw i8, ptr %3, i64 12
  store float %35, ptr %36, align 4, !tbaa !53
  %37 = load float, ptr %0, align 4, !tbaa !59
  %38 = fneg float %23
  %39 = tail call float @llvm.fmuladd.f32(float %37, float 2.000000e+00, float %38)
  %40 = getelementptr inbounds nuw i8, ptr %3, i64 16
  store float %39, ptr %40, align 4, !tbaa !52
  %41 = load float, ptr %24, align 4, !tbaa !62
  %42 = fneg float %27
  %43 = tail call float @llvm.fmuladd.f32(float %41, float 2.000000e+00, float %42)
  %44 = getelementptr inbounds nuw i8, ptr %3, i64 20
  store float %43, ptr %44, align 4, !tbaa !53
  %45 = load float, ptr %0, align 4, !tbaa !59
  %46 = fneg float %31
  %47 = tail call float @llvm.fmuladd.f32(float %45, float 2.000000e+00, float %46)
  %48 = getelementptr inbounds nuw i8, ptr %3, i64 24
  store float %47, ptr %48, align 4, !tbaa !52
  %49 = load float, ptr %24, align 4, !tbaa !62
  %50 = fneg float %35
  %51 = tail call float @llvm.fmuladd.f32(float %49, float 2.000000e+00, float %50)
  %52 = getelementptr inbounds nuw i8, ptr %3, i64 28
  store float %51, ptr %52, align 4, !tbaa !53
  ret void
}